; Function Attrs: mustprogress uwtable
define void @_ZN6icu_7712NumberFormatC2ERKS0_(ptr noundef nonnull align 8 dereferenceable(60) %0, ptr noundef nonnull align 8 dereferenceable(60) %1) unnamed_addr #1 align 2 personality ptr @__gxx_personality_v0 {
  tail call void @_ZN6icu_776FormatC2ERKS0_(ptr noundef nonnull align 8 dereferenceable(24) %0, ptr noundef nonnull align 8 dereferenceable(24) %1)
  store ptr getelementptr inbounds nuw inrange(-16, 296) (i8, ptr @_ZTVN6icu_7712NumberFormatE, i64 16), ptr %0, align 8, !tbaa !15
  %.not.i = icmp eq ptr %0, %1
  br i1 %.not.i, label %_ZN6icu_7712NumberFormataSERKS0_.exit, label %3

3:                                                ; preds = %2
  %4 = invoke noundef nonnull align 8 dereferenceable(24) ptr @_ZN6icu_776FormataSERKS0_(ptr noundef nonnull align 8 dereferenceable(60) %0, ptr noundef nonnull align 8 dereferenceable(60) %1)
          to label %.noexc unwind label %33

.noexc:                                           ; preds = %3
  %5 = getelementptr inbounds nuw i8, ptr %1, i64 24
  %6 = load i8, ptr %5, align 8, !tbaa !24
  %7 = getelementptr inbounds nuw i8, ptr %0, i64 24
  store i8 %6, ptr %7, align 8, !tbaa !24
  %8 = getelementptr inbounds nuw i8, ptr %1, i64 28
  %9 = load i32, ptr %8, align 4, !tbaa !29
  %10 = getelementptr inbounds nuw i8, ptr %0, i64 28
  store i32 %9, ptr %10, align 4, !tbaa !29
  %11 = getelementptr inbounds nuw i8, ptr %1, i64 32
  %12 = load i32, ptr %11, align 8, !tbaa !30
  %13 = getelementptr inbounds nuw i8, ptr %0, i64 32
  store i32 %12, ptr %13, align 8, !tbaa !30
  %14 = getelementptr inbounds nuw i8, ptr %1, i64 36
  %15 = load i32, ptr %14, align 4, !tbaa !31
  %16 = getelementptr inbounds nuw i8, ptr %0, i64 36
  store i32 %15, ptr %16, align 4, !tbaa !31
  %17 = getelementptr inbounds nuw i8, ptr %1, i64 40
  %18 = load i32, ptr %17, align 8, !tbaa !32
  %19 = getelementptr inbounds nuw i8, ptr %0, i64 40
  store i32 %18, ptr %19, align 8, !tbaa !32
  %20 = getelementptr inbounds nuw i8, ptr %1, i64 44
  %21 = load i8, ptr %20, align 4, !tbaa !33
  %22 = getelementptr inbounds nuw i8, ptr %0, i64 44
  store i8 %21, ptr %22, align 4, !tbaa !33
  %23 = getelementptr inbounds nuw i8, ptr %0, i64 46
  %24 = getelementptr inbounds nuw i8, ptr %1, i64 46
  %25 = invoke ptr @u_strncpy_77(ptr noundef nonnull %23, ptr noundef nonnull %24, i32 noundef 3)
          to label %.noexc4 unwind label %33

.noexc4:                                          ; preds = %.noexc
  %26 = getelementptr inbounds nuw i8, ptr %0, i64 52
  store i16 0, ptr %26, align 4, !tbaa !36
  %27 = getelementptr inbounds nuw i8, ptr %1, i64 45
  %28 = load i8, ptr %27, align 1, !tbaa !34
  %29 = getelementptr inbounds nuw i8, ptr %0, i64 45
  store i8 %28, ptr %29, align 1, !tbaa !34
  %30 = getelementptr inbounds nuw i8, ptr %1, i64 56
  %31 = load i32, ptr %30, align 8, !tbaa !35
  %32 = getelementptr inbounds nuw i8, ptr %0, i64 56
  store i32 %31, ptr %32, align 8, !tbaa !35
  br label %_ZN6icu_7712NumberFormataSERKS0_.exit

_ZN6icu_7712NumberFormataSERKS0_.exit:            ; preds = %.noexc4, %2
  ret void

33:                                               ; preds = %.noexc, %3
  %34 = landingpad { ptr, i32 }
          cleanup
  tail call void @_ZN6icu_776FormatD2Ev(ptr noundef nonnull align 8 dereferenceable(24) %0) #22
  resume { ptr, i32 } %34
}